target datalayout = "e-m:e-p270:32:32-p271:32:32-p272:64:64-i64:64-i128:128-f80:128-n8:16:32:64-S128"
target triple = "x86_64-pc-linux-gnu"

%struct.option = type { i32, i32, ptr, ptr, ptr, ptr, i32, ptr, i64, ptr, i64, ptr }

@.str.41 = private unnamed_addr constant [1 x i8] zeroinitializer, align 1
@.str.256 = private unnamed_addr constant [7 x i8] c"diff.c\00", align 1
@git_gettext_enabled = external global i32, align 4
@.str.331 = private unnamed_addr constant [41 x i8] c"option callback does not expect negation\00", align 1
@.str.341 = private unnamed_addr constant [24 x i8] c"%s expects <n>/<m> form\00", align 1

; Function Attrs: inlinehint nounwind uwtable
define internal i32 @const_error() #2 {
  ret i32 -1
}

; Function Attrs: inlinehint nounwind uwtable
define internal ptr @_(ptr noundef %0) #2 {
  %2 = alloca ptr, align 8
  %3 = alloca ptr, align 8
  store ptr %0, ptr %3, align 8, !tbaa !9
  %4 = load ptr, ptr %3, align 8, !tbaa !9
  %5 = load i8, ptr %4, align 1, !tbaa !48
  %6 = icmp ne i8 %5, 0
  br i1 %6, label %8, label %7

7:                                                ; preds = %1
  store ptr @.str.41, ptr %2, align 8
  br label %16

8:                                                ; preds = %1
  %9 = load i32, ptr @git_gettext_enabled, align 4, !tbaa !16
  %10 = icmp ne i32 %9, 0
  br i1 %10, label %13, label %11

11:                                               ; preds = %8
  %12 = load ptr, ptr %3, align 8, !tbaa !9
  store ptr %12, ptr %2, align 8
  br label %16

13:                                               ; preds = %8
  %14 = load ptr, ptr %3, align 8, !tbaa !9
  %15 = call ptr @dcgettext(ptr noundef null, ptr noundef %14, i32 noundef 5) #10
  store ptr %15, ptr %2, align 8
  br label %16

16:                                               ; preds = %13, %11, %7
  %17 = load ptr, ptr %2, align 8
  ret ptr %17
}

; Function Attrs: nounwind uwtable
define dso_local i32 @parse_rename_score(ptr noundef %0) #0 {
  %2 = alloca ptr, align 8
  %3 = alloca i64, align 8
  %4 = alloca i64, align 8
  %5 = alloca i32, align 4
  %6 = alloca i32, align 4
  %7 = alloca ptr, align 8
  store ptr %0, ptr %2, align 8, !tbaa !50
  call void @llvm.lifetime.start.p0(i64 8, ptr %3) #10
  call void @llvm.lifetime.start.p0(i64 8, ptr %4) #10
  call void @llvm.lifetime.start.p0(i64 4, ptr %5) #10
  call void @llvm.lifetime.start.p0(i64 4, ptr %6) #10
  call void @llvm.lifetime.start.p0(i64 8, ptr %7) #10
  %8 = load ptr, ptr %2, align 8, !tbaa !50
  %9 = load ptr, ptr %8, align 8, !tbaa !9
  store ptr %9, ptr %7, align 8, !tbaa !9
  store i64 0, ptr %3, align 8, !tbaa !11
  store i64 1, ptr %4, align 8, !tbaa !11
  store i32 0, ptr %6, align 4, !tbaa !16
  br label %10

10:                                               ; preds = %56, %1
  %11 = load ptr, ptr %7, align 8, !tbaa !9
  %12 = load i8, ptr %11, align 1, !tbaa !48
  %13 = sext i8 %12 to i32
  store i32 %13, ptr %5, align 4, !tbaa !16
  %14 = load i32, ptr %6, align 4, !tbaa !16
  %15 = icmp ne i32 %14, 0
  br i1 %15, label %20, label %16

16:                                               ; preds = %10
  %17 = load i32, ptr %5, align 4, !tbaa !16
  %18 = icmp eq i32 %17, 46
  br i1 %18, label %19, label %20

19:                                               ; preds = %16
  store i64 1, ptr %4, align 8, !tbaa !11
  store i32 1, ptr %6, align 4, !tbaa !16
  br label %56

20:                                               ; preds = %16, %10
  %21 = load i32, ptr %5, align 4, !tbaa !16
  %22 = icmp eq i32 %21, 37
  br i1 %22, label %23, label %34

23:                                               ; preds = %20
  %24 = load i32, ptr %6, align 4, !tbaa !16
  %25 = icmp ne i32 %24, 0
  br i1 %25, label %26, label %29

26:                                               ; preds = %23
  %27 = load i64, ptr %4, align 8, !tbaa !11
  %28 = mul i64 %27, 100
  br label %30

29:                                               ; preds = %23
  br label %30

30:                                               ; preds = %29, %26
  %31 = phi i64 [ %28, %26 ], [ 100, %29 ]
  store i64 %31, ptr %4, align 8, !tbaa !11
  %32 = load ptr, ptr %7, align 8, !tbaa !9
  %33 = getelementptr inbounds nuw i8, ptr %32, i32 1
  store ptr %33, ptr %7, align 8, !tbaa !9
  br label %59

34:                                               ; preds = %20
  %35 = load i32, ptr %5, align 4, !tbaa !16
  %36 = icmp sge i32 %35, 48
  br i1 %36, label %37, label %53

37:                                               ; preds = %34
  %38 = load i32, ptr %5, align 4, !tbaa !16
  %39 = icmp sle i32 %38, 57
  br i1 %39, label %40, label %53

40:                                               ; preds = %37
  %41 = load i64, ptr %4, align 8, !tbaa !11
  %42 = icmp ult i64 %41, 100000
  br i1 %42, label %43, label %52

43:                                               ; preds = %40
  %44 = load i64, ptr %4, align 8, !tbaa !11
  %45 = mul i64 %44, 10
  store i64 %45, ptr %4, align 8, !tbaa !11
  %46 = load i64, ptr %3, align 8, !tbaa !11
  %47 = mul i64 %46, 10
  %48 = load i32, ptr %5, align 4, !tbaa !16
  %49 = sub nsw i32 %48, 48
  %50 = sext i32 %49 to i64
  %51 = add i64 %47, %50
  store i64 %51, ptr %3, align 8, !tbaa !11
  br label %52

52:                                               ; preds = %43, %40
  br label %54

53:                                               ; preds = %37, %34
  br label %59

54:                                               ; preds = %52
  br label %55

55:                                               ; preds = %54
  br label %56

56:                                               ; preds = %55, %19
  %57 = load ptr, ptr %7, align 8, !tbaa !9
  %58 = getelementptr inbounds nuw i8, ptr %57, i32 1
  store ptr %58, ptr %7, align 8, !tbaa !9
  br label %10

59:                                               ; preds = %53, %30
  %60 = load ptr, ptr %7, align 8, !tbaa !9
  %61 = load ptr, ptr %2, align 8, !tbaa !50
  store ptr %60, ptr %61, align 8, !tbaa !9
  %62 = load i64, ptr %3, align 8, !tbaa !11
  %63 = load i64, ptr %4, align 8, !tbaa !11
  %64 = icmp uge i64 %62, %63
  br i1 %64, label %65, label %66

65:                                               ; preds = %59
  br label %73

66:                                               ; preds = %59
  %67 = load i64, ptr %3, align 8, !tbaa !11
  %68 = uitofp i64 %67 to double
  %69 = fmul double 6.000000e+04, %68
  %70 = load i64, ptr %4, align 8, !tbaa !11
  %71 = uitofp i64 %70 to double
  %72 = fdiv double %69, %71
  br label %73

73:                                               ; preds = %66, %65
  %74 = phi double [ 6.000000e+04, %65 ], [ %72, %66 ]
  %75 = fptosi double %74 to i32
  call void @llvm.lifetime.end.p0(i64 8, ptr %7) #10
  call void @llvm.lifetime.end.p0(i64 4, ptr %6) #10
  call void @llvm.lifetime.end.p0(i64 4, ptr %5) #10
  call void @llvm.lifetime.end.p0(i64 8, ptr %4) #10
  call void @llvm.lifetime.end.p0(i64 8, ptr %3) #10
  ret i32 %75
}

; Function Attrs: nounwind uwtable
define internal i32 @diff_opt_break_rewrites(ptr noundef %0, ptr noundef %1, i32 noundef %2) #0 {
  %4 = alloca i32, align 4
  %5 = alloca ptr, align 8
  %6 = alloca ptr, align 8
  %7 = alloca i32, align 4
  %8 = alloca ptr, align 8
  %9 = alloca i32, align 4
  %10 = alloca i32, align 4
  %11 = alloca i32, align 4
  store ptr %0, ptr %5, align 8, !tbaa !217
  store ptr %1, ptr %6, align 8, !tbaa !9
  store i32 %2, ptr %7, align 4, !tbaa !16
  call void @llvm.lifetime.start.p0(i64 8, ptr %8) #10
  %12 = load ptr, ptr %5, align 8, !tbaa !217
  %13 = getelementptr inbounds nuw %struct.option, ptr %12, i32 0, i32 3
  %14 = load ptr, ptr %13, align 8, !tbaa !224
  store ptr %14, ptr %8, align 8, !tbaa !239
  call void @llvm.lifetime.start.p0(i64 4, ptr %9) #10
  call void @llvm.lifetime.start.p0(i64 4, ptr %10) #10
  br label %15

15:                                               ; preds = %3
  %16 = load i32, ptr %7, align 4, !tbaa !16
  %17 = icmp ne i32 %16, 0
  br i1 %17, label %18, label %19

18:                                               ; preds = %15
  call void (ptr, i32, ptr, ...) @BUG_fl(ptr noundef @.str.256, i32 noundef 5184, ptr noundef @.str.331) #12
  unreachable

19:                                               ; preds = %15
  br label %20

20:                                               ; preds = %19
  br label %21

21:                                               ; preds = %20
  %22 = load ptr, ptr %6, align 8, !tbaa !9
  %23 = icmp ne ptr %22, null
  br i1 %23, label %25, label %24

24:                                               ; preds = %21
  store ptr @.str.41, ptr %6, align 8, !tbaa !9
  br label %25

25:                                               ; preds = %24, %21
  %26 = call i32 @parse_rename_score(ptr noundef %6)
  store i32 %26, ptr %9, align 4, !tbaa !16
  %27 = load ptr, ptr %6, align 8, !tbaa !9
  %28 = load i8, ptr %27, align 1, !tbaa !48
  %29 = sext i8 %28 to i32
  %30 = icmp eq i32 %29, 0
  br i1 %30, label %31, label %32

31:                                               ; preds = %25
  store i32 0, ptr %10, align 4, !tbaa !16
  br label %49

32:                                               ; preds = %25
  %33 = load ptr, ptr %6, align 8, !tbaa !9
  %34 = load i8, ptr %33, align 1, !tbaa !48
  %35 = sext i8 %34 to i32
  %36 = icmp ne i32 %35, 47
  br i1 %36, label %37, label %44

37:                                               ; preds = %32
  %38 = call ptr @_(ptr noundef @.str.341)
  %39 = load ptr, ptr %5, align 8, !tbaa !217
  %40 = getelementptr inbounds nuw %struct.option, ptr %39, i32 0, i32 2
  %41 = load ptr, ptr %40, align 8, !tbaa !223
  %42 = call i32 (ptr, ...) @error(ptr noundef %38, ptr noundef %41)
  %43 = call i32 @const_error()
  store i32 %43, ptr %4, align 4
  store i32 1, ptr %11, align 4
  br label %67

44:                                               ; preds = %32
  %45 = load ptr, ptr %6, align 8, !tbaa !9
  %46 = getelementptr inbounds nuw i8, ptr %45, i32 1
  store ptr %46, ptr %6, align 8, !tbaa !9
  %47 = call i32 @parse_rename_score(ptr noundef %6)
  store i32 %47, ptr %10, align 4, !tbaa !16
  br label %48

48:                                               ; preds = %44
  br label %49

49:                                               ; preds = %48, %31
  %50 = load ptr, ptr %6, align 8, !tbaa !9
  %51 = load i8, ptr %50, align 1, !tbaa !48
  %52 = sext i8 %51 to i32
  %53 = icmp ne i32 %52, 0
  br i1 %53, label %54, label %61

54:                                               ; preds = %49
  %55 = call ptr @_(ptr noundef @.str.341)
  %56 = load ptr, ptr %5, align 8, !tbaa !217
  %57 = getelementptr inbounds nuw %struct.option, ptr %56, i32 0, i32 2
  %58 = load ptr, ptr %57, align 8, !tbaa !223
  %59 = call i32 (ptr, ...) @error(ptr noundef %55, ptr noundef %58)
  %60 = call i32 @const_error()
  store i32 %60, ptr %4, align 4
  store i32 1, ptr %11, align 4
  br label %67

61:                                               ; preds = %49
  %62 = load i32, ptr %9, align 4, !tbaa !16
  %63 = load i32, ptr %10, align 4, !tbaa !16
  %64 = shl i32 %63, 16
  %65 = or i32 %62, %64
  %66 = load ptr, ptr %8, align 8, !tbaa !239
  store i32 %65, ptr %66, align 4, !tbaa !16
  store i32 0, ptr %4, align 4
  store i32 1, ptr %11, align 4
  br label %67

67:                                               ; preds = %61, %54, %37
  call void @llvm.lifetime.end.p0(i64 4, ptr %10) #10
  call void @llvm.lifetime.end.p0(i64 4, ptr %9) #10
  call void @llvm.lifetime.end.p0(i64 8, ptr %8) #10
  %68 = load i32, ptr %4, align 4
  ret i32 %68
}