; Function Attrs: nounwind uwtable
define internal range(i32 -1, 1) i32 @diff_opt_break_rewrites(ptr noundef readonly captures(none) %0, ptr noundef readonly %1, i32 noundef %2) #0 {
  %4 = getelementptr inbounds nuw i8, ptr %0, i64 16
  %5 = load ptr, ptr %4, align 8, !tbaa !215
  %.not = icmp eq i32 %2, 0
  br i1 %.not, label %7, label %6

6:                                                ; preds = %3
  tail call void (ptr, i32, ptr, ...) @BUG_fl(ptr noundef nonnull @.str.256, i32 noundef 5184, ptr noundef nonnull @.str.331) #34
  unreachable

7:                                                ; preds = %3
  %.not9 = icmp eq ptr %1, null
  %spec.select = select i1 %.not9, ptr @.str.41, ptr %1
  br label %8

8:                                                ; preds = %27, %7
  %.027.i = phi i64 [ 1, %7 ], [ %.128.i, %27 ]
  %.025.i = phi i64 [ 0, %7 ], [ %.126.i, %27 ]
  %.023.i = phi i32 [ 0, %7 ], [ %.124.i, %27 ]
  %.0.i = phi ptr [ %spec.select, %7 ], [ %28, %27 ]
  %9 = load i8, ptr %.0.i, align 1, !tbaa !38
  %10 = icmp eq i32 %.023.i, 0
  %11 = icmp eq i8 %9, 46
  %or.cond.i = select i1 %10, i1 %11, i1 false
  br i1 %or.cond.i, label %27, label %12

12:                                               ; preds = %8
  %13 = icmp eq i8 %9, 37
  br i1 %13, label %14, label %18

14:                                               ; preds = %12
  %15 = mul i64 %.027.i, 100
  %16 = select i1 %10, i64 100, i64 %15
  %17 = getelementptr inbounds nuw i8, ptr %.0.i, i64 1
  br label %.loopexit.i

18:                                               ; preds = %12
  %19 = add i8 %9, -48
  %or.cond3.i = icmp ult i8 %19, 10
  br i1 %or.cond3.i, label %20, label %.loopexit.i

20:                                               ; preds = %18
  %21 = icmp ult i64 %.027.i, 100000
  br i1 %21, label %22, label %27

22:                                               ; preds = %20
  %23 = mul nuw nsw i64 %.027.i, 10
  %24 = mul i64 %.025.i, 10
  %25 = zext nneg i8 %19 to i64
  %26 = add i64 %24, %25
  br label %27

27:                                               ; preds = %22, %20, %8
  %.128.i = phi i64 [ %23, %22 ], [ %.027.i, %20 ], [ 1, %8 ]
  %.126.i = phi i64 [ %26, %22 ], [ %.025.i, %20 ], [ %.025.i, %8 ]
  %.124.i = phi i32 [ %.023.i, %22 ], [ %.023.i, %20 ], [ 1, %8 ]
  %28 = getelementptr inbounds nuw i8, ptr %.0.i, i64 1
  br label %8

.loopexit.i:                                      ; preds = %18, %14
  %.2.i = phi i64 [ %16, %14 ], [ %.027.i, %18 ]
  %.1.i = phi ptr [ %17, %14 ], [ %.0.i, %18 ]
  %.not30.i = icmp ult i64 %.025.i, %.2.i
  br i1 %.not30.i, label %29, label %parse_rename_score.exit

29:                                               ; preds = %.loopexit.i
  %30 = uitofp i64 %.025.i to double
  %31 = fmul double %30, 6.000000e+04
  %32 = uitofp i64 %.2.i to double
  %33 = fdiv double %31, %32
  %34 = fptosi double %33 to i32
  br label %parse_rename_score.exit

parse_rename_score.exit:                          ; preds = %.loopexit.i, %29
  %35 = phi i32 [ %34, %29 ], [ 60000, %.loopexit.i ]
  %36 = load i8, ptr %.1.i, align 1, !tbaa !38
  switch i8 %36, label %37 [
    i8 0, label %.thread
    i8 47, label %.preheader.outer.outer
  ]

.preheader.outer.outer:                           ; preds = %parse_rename_score.exit, %57
  %.027.i13.ph.ph = phi i64 [ %58, %57 ], [ 1, %parse_rename_score.exit ]
  %.025.i14.ph.ph = phi i64 [ %61, %57 ], [ 0, %parse_rename_score.exit ]
  %.023.i15.ph.ph = phi i32 [ %.023.i15.ph, %57 ], [ 0, %parse_rename_score.exit ]
  %.1.i.pn.ph.ph = phi ptr [ %.0.i16, %57 ], [ %.1.i, %parse_rename_score.exit ]
  br label %.preheader.outer

37:                                               ; preds = %parse_rename_score.exit
  %38 = load i32, ptr @git_gettext_enabled, align 4, !tbaa !11
  %.not4.i = icmp eq i32 %38, 0
  br i1 %.not4.i, label %_.exit, label %39

39:                                               ; preds = %37
  %40 = tail call ptr @dcgettext(ptr noundef null, ptr noundef nonnull @.str.341, i32 noundef 5) #32
  br label %_.exit

_.exit:                                           ; preds = %37, %39
  %.0.i12 = phi ptr [ %40, %39 ], [ @.str.341, %37 ]
  %41 = getelementptr inbounds nuw i8, ptr %0, i64 8
  %42 = load ptr, ptr %41, align 8, !tbaa !214
  %43 = tail call i32 (ptr, ...) @error(ptr noundef %.0.i12, ptr noundef %42) #32
  br label %79

.preheader:                                       ; preds = %.preheader.outer, %56
  %.1.i.pn = phi ptr [ %.0.i16, %56 ], [ %.1.i.pn.ph, %.preheader.outer ]
  %.0.i16 = getelementptr inbounds nuw i8, ptr %.1.i.pn, i64 1
  %44 = load i8, ptr %.0.i16, align 1, !tbaa !38
  %45 = icmp eq i8 %44, 46
  %or.cond.i17 = select i1 %46, i1 %45, i1 false
  br i1 %or.cond.i17, label %.preheader.outer, label %48

.preheader.outer:                                 ; preds = %.preheader, %.preheader.outer.outer
  %.027.i13.ph = phi i64 [ %.027.i13.ph.ph, %.preheader.outer.outer ], [ 1, %.preheader ]
  %.023.i15.ph = phi i32 [ %.023.i15.ph.ph, %.preheader.outer.outer ], [ 1, %.preheader ]
  %.1.i.pn.ph = phi ptr [ %.1.i.pn.ph.ph, %.preheader.outer.outer ], [ %.0.i16, %.preheader ]
  %46 = icmp eq i32 %.023.i15.ph, 0
  %47 = icmp samesign ult i64 %.027.i13.ph, 100000
  br label %.preheader

48:                                               ; preds = %.preheader
  %49 = icmp eq i8 %44, 37
  br i1 %49, label %50, label %54

50:                                               ; preds = %48
  %51 = mul nsw i64 %.027.i13.ph, 100
  %52 = select i1 %46, i64 100, i64 %51
  %53 = getelementptr inbounds nuw i8, ptr %.1.i.pn, i64 2
  br label %.loopexit.i19

54:                                               ; preds = %48
  %55 = add i8 %44, -48
  %or.cond3.i18 = icmp ult i8 %55, 10
  br i1 %or.cond3.i18, label %56, label %.loopexit.i19

56:                                               ; preds = %54
  br i1 %47, label %57, label %.preheader

57:                                               ; preds = %56
  %58 = mul nuw nsw i64 %.027.i13.ph, 10
  %59 = mul i64 %.025.i14.ph.ph, 10
  %60 = zext nneg i8 %55 to i64
  %61 = add i64 %59, %60
  br label %.preheader.outer.outer

.loopexit.i19:                                    ; preds = %54, %50
  %.2.i20 = phi i64 [ %52, %50 ], [ %.027.i13.ph, %54 ]
  %.1.i21 = phi ptr [ %53, %50 ], [ %.0.i16, %54 ]
  %.not30.i22 = icmp ult i64 %.025.i14.ph.ph, %.2.i20
  br i1 %.not30.i22, label %62, label %69

62:                                               ; preds = %.loopexit.i19
  %63 = uitofp i64 %.025.i14.ph.ph to double
  %64 = fmul double %63, 6.000000e+04
  %65 = uitofp i64 %.2.i20 to double
  %66 = fdiv double %64, %65
  %67 = fptosi double %66 to i32
  %68 = shl i32 %67, 16
  br label %69

69:                                               ; preds = %62, %.loopexit.i19
  %70 = phi i32 [ %68, %62 ], [ -362807296, %.loopexit.i19 ]
  %.pr = load i8, ptr %.1.i21, align 1, !tbaa !38
  %.not11 = icmp eq i8 %.pr, 0
  br i1 %.not11, label %.thread, label %71

71:                                               ; preds = %69
  %72 = load i32, ptr @git_gettext_enabled, align 4, !tbaa !11
  %.not4.i27 = icmp eq i32 %72, 0
  br i1 %.not4.i27, label %_.exit29, label %73

73:                                               ; preds = %71
  %74 = tail call ptr @dcgettext(ptr noundef null, ptr noundef nonnull @.str.341, i32 noundef 5) #32
  br label %_.exit29

_.exit29:                                         ; preds = %71, %73
  %.0.i28 = phi ptr [ %74, %73 ], [ @.str.341, %71 ]
  %75 = getelementptr inbounds nuw i8, ptr %0, i64 8
  %76 = load ptr, ptr %75, align 8, !tbaa !214
  %77 = tail call i32 (ptr, ...) @error(ptr noundef %.0.i28, ptr noundef %76) #32
  br label %79

.thread:                                          ; preds = %parse_rename_score.exit, %69
  %.037 = phi i32 [ %70, %69 ], [ 0, %parse_rename_score.exit ]
  %78 = or i32 %.037, %35
  store i32 %78, ptr %5, align 4, !tbaa !11
  br label %79

79:                                               ; preds = %.thread, %_.exit29, %_.exit
  %.07 = phi i32 [ -1, %_.exit29 ], [ 0, %.thread ], [ -1, %_.exit ]
  ret i32 %.07
}